ARM GAS  /tmp/cceHp6fP.s 			page 1


   1              		.cpu cortex-m4
   2              		.arch armv7e-m
   3              		.fpu fpv4-sp-d16
   4              		.eabi_attribute 27, 1
   5              		.eabi_attribute 28, 1
   6              		.eabi_attribute 20, 1
   7              		.eabi_attribute 21, 1
   8              		.eabi_attribute 23, 3
   9              		.eabi_attribute 24, 1
  10              		.eabi_attribute 25, 1
  11              		.eabi_attribute 26, 1
  12              		.eabi_attribute 30, 1
  13              		.eabi_attribute 34, 1
  14              		.eabi_attribute 18, 4
  15              		.file	"seg7.c"
  16              		.text
  17              	.Ltext0:
  18              		.cfi_sections	.debug_frame
  19              		.file 1 "Core/Src/seg7.c"
  20              		.section	.text.Seven_Segment_Digit,"ax",%progbits
  21              		.align	1
  22              		.global	Seven_Segment_Digit
  23              		.syntax unified
  24              		.thumb
  25              		.thumb_func
  27              	Seven_Segment_Digit:
  28              	.LVL0:
  29              	.LFB134:
   1:Core/Src/seg7.c **** /* USER CODE BEGIN Header */
   2:Core/Src/seg7.c **** /**
   3:Core/Src/seg7.c ****   ******************************************************************************
   4:Core/Src/seg7.c ****   * @file           : seg7.c
   5:Core/Src/seg7.c ****   * @brief          : Main program body
   6:Core/Src/seg7.c ****   ******************************************************************************
   7:Core/Src/seg7.c ****   *
   8:Core/Src/seg7.c ****   *
   9:Core/Src/seg7.c ****   * Copyright (c) 2023 Boise State University
  10:Core/Src/seg7.c ****   * All rights reserved.
  11:Core/Src/seg7.c ****   *
  12:Core/Src/seg7.c ****   * This file provides a library for outputting characters to the 7 segment
  13:Core/Src/seg7.c ****   * displays on the STM32F4 Discovery Peripheral Board for ECE330L lab.
  14:Core/Src/seg7.c ****   * If no LICENSE file comes with this software, it is provided AS-IS.
  15:Core/Src/seg7.c ****   *
  16:Core/Src/seg7.c ****   ******************************************************************************
  17:Core/Src/seg7.c ****   */
  18:Core/Src/seg7.c **** /* USER CODE END Header */
  19:Core/Src/seg7.c **** /* Includes ------------------------------------------------------------------*/
  20:Core/Src/seg7.c **** #include "seg7.h"
  21:Core/Src/seg7.c **** 
  22:Core/Src/seg7.c **** extern void Seven_Segment_Digit (unsigned char digit, unsigned char hex_char, unsigned char dot);
  23:Core/Src/seg7.c **** extern void Seven_Segment_ASCII (unsigned char digit, unsigned char ascii_char, unsigned char dot);
  24:Core/Src/seg7.c **** extern void Seven_Segment(unsigned int HexValue);
  25:Core/Src/seg7.c **** 
  26:Core/Src/seg7.c **** #define COMMON_ANODE 1
  27:Core/Src/seg7.c **** /* Character set Common Anode */
  28:Core/Src/seg7.c **** #if COMMON_ANODE == 1
  29:Core/Src/seg7.c **** 
ARM GAS  /tmp/cceHp6fP.s 			page 2


  30:Core/Src/seg7.c **** // Characters assigned numerically based on 0-9, A-Z, plus special characters
  31:Core/Src/seg7.c **** char _7SEG[] =
  32:Core/Src/seg7.c **** 		{~(0x3F),~(0x06),~(0x3F),~(0x4F),~(0x66),~(0x6D),~(0x7D),
  33:Core/Src/seg7.c **** 		~(0x07),~(0x7F),~(0x6F),~(0x77),~(0x7C),~(0x39),~(0x5E),
  34:Core/Src/seg7.c **** 		~(0x79),~(0x71),~(0x3D),~(0x76),~(0x06),~(0x1E),~(0x7A),
  35:Core/Src/seg7.c **** 		~(0x38),~(0x15),~(0x54),~(0x3F),~(0x73),~(0x67),~(0x50),
  36:Core/Src/seg7.c **** 		~(0x6D),~(0x78),~(0x3E),~(0x62),~(0x2A),~(0x64),~(0x6E),
  37:Core/Src/seg7.c **** 		~(0x5B),~(0x80),~(0x48),~(0x01),~(0x02),~(0x04),~(0x08),
  38:Core/Src/seg7.c **** 		~(0x10),~(0x20),~(0x40),~(0x00)};
  39:Core/Src/seg7.c **** 		
  40:Core/Src/seg7.c **** // Characters assigned based on ASCII character codes		
  41:Core/Src/seg7.c **** unsigned char _7SEG_ASCII[]=
  42:Core/Src/seg7.c **** {
  43:Core/Src/seg7.c **** 	['0'] = ~(0x3F),
  44:Core/Src/seg7.c **** 	['1'] = ~(0x06),
  45:Core/Src/seg7.c **** 	['2'] = ~(0x5B),
  46:Core/Src/seg7.c **** 	['3'] = ~(0x4F),
  47:Core/Src/seg7.c **** 	['4'] = ~(0x66),
  48:Core/Src/seg7.c **** 	['5'] = ~(0x6D),
  49:Core/Src/seg7.c **** 	['6'] = ~(0x7D),
  50:Core/Src/seg7.c **** 	['7'] = ~(0x07),
  51:Core/Src/seg7.c **** 	['8'] = ~(0x7F),
  52:Core/Src/seg7.c **** 	['9'] = ~(0x6F),
  53:Core/Src/seg7.c **** 	['A'] = ~(0x77),
  54:Core/Src/seg7.c **** 	['B'] = ~(0x7C),
  55:Core/Src/seg7.c **** 	['C'] = ~(0x39),
  56:Core/Src/seg7.c **** 	['D'] = ~(0x5E),
  57:Core/Src/seg7.c **** 	['E'] = ~(0x79),
  58:Core/Src/seg7.c **** 	['F'] = ~(0x71),
  59:Core/Src/seg7.c **** 	['G'] = ~(0x3D),
  60:Core/Src/seg7.c **** 	['H'] = ~(0x76),
  61:Core/Src/seg7.c **** 	['I'] = ~(0x06),
  62:Core/Src/seg7.c **** 	['J'] = ~(0x1E),
  63:Core/Src/seg7.c **** 	['K'] = ~(0x7A),
  64:Core/Src/seg7.c **** 	['L'] = ~(0x38),
  65:Core/Src/seg7.c **** 	['M'] = ~(0x15),
  66:Core/Src/seg7.c **** 	['N'] = ~(0x54),
  67:Core/Src/seg7.c **** 	['O'] = ~(0x3F),
  68:Core/Src/seg7.c **** 	['P'] = ~(0x73),
  69:Core/Src/seg7.c **** 	['Q'] = ~(0x67),
  70:Core/Src/seg7.c **** 	['R'] = ~(0x50),
  71:Core/Src/seg7.c **** 	['S'] = ~(0x6D),
  72:Core/Src/seg7.c **** 	['T'] = ~(0x78),
  73:Core/Src/seg7.c **** 	['U'] = ~(0x3E),
  74:Core/Src/seg7.c **** 	['V'] = ~(0x62),
  75:Core/Src/seg7.c **** 	['W'] = ~(0x2A),
  76:Core/Src/seg7.c **** 	['X'] = ~(0x64),
  77:Core/Src/seg7.c **** 	['Y'] = ~(0x6E),
  78:Core/Src/seg7.c **** 	['Z'] = ~(0x5B),
  79:Core/Src/seg7.c **** 	['a'] = ~(0x77),
  80:Core/Src/seg7.c **** 	['b'] = ~(0x7C),
  81:Core/Src/seg7.c **** 	['c'] = ~(0x39),
  82:Core/Src/seg7.c **** 	['d'] = ~(0x5E),
  83:Core/Src/seg7.c **** 	['e'] = ~(0x79),
  84:Core/Src/seg7.c **** 	['f'] = ~(0x71),
  85:Core/Src/seg7.c **** 	['g'] = ~(0x3D),
  86:Core/Src/seg7.c **** 	['h'] = ~(0x76),
ARM GAS  /tmp/cceHp6fP.s 			page 3


  87:Core/Src/seg7.c **** 	['i'] = ~(0x06),
  88:Core/Src/seg7.c **** 	['j'] = ~(0x1E),
  89:Core/Src/seg7.c **** 	['k'] = ~(0x7A),
  90:Core/Src/seg7.c **** 	['l'] = ~(0x38),
  91:Core/Src/seg7.c **** 	['m'] = ~(0x15),
  92:Core/Src/seg7.c **** 	['n'] = ~(0x54),
  93:Core/Src/seg7.c **** 	['o'] = ~(0x3F),
  94:Core/Src/seg7.c **** 	['p'] = ~(0x73),
  95:Core/Src/seg7.c **** 	['q'] = ~(0x67),
  96:Core/Src/seg7.c **** 	['r'] = ~(0x50),
  97:Core/Src/seg7.c **** 	['s'] = ~(0x6D),
  98:Core/Src/seg7.c **** 	['t'] = ~(0x78),
  99:Core/Src/seg7.c **** 	['u'] = ~(0x3E),
 100:Core/Src/seg7.c **** 	['v'] = ~(0x62),
 101:Core/Src/seg7.c **** 	['w'] = ~(0x2A),
 102:Core/Src/seg7.c **** 	['x'] = ~(0x64),
 103:Core/Src/seg7.c **** 	['y'] = ~(0x6E),
 104:Core/Src/seg7.c **** 	['z'] = ~(0x5B),
 105:Core/Src/seg7.c **** 	['.'] = ~(0x80),
 106:Core/Src/seg7.c **** 	['='] = ~(0x48),
 107:Core/Src/seg7.c **** 	[' '] = ~(0x00),
 108:Core/Src/seg7.c **** 	['-'] = ~(0x20),
 109:Core/Src/seg7.c **** 	['_'] = ~(0x04),
 110:Core/Src/seg7.c **** 	[127] = 0,
 111:Core/Src/seg7.c **** };
 112:Core/Src/seg7.c **** 
 113:Core/Src/seg7.c **** 
 114:Core/Src/seg7.c **** #else
 115:Core/Src/seg7.c **** 
 116:Core/Src/seg7.c **** // Characters assigned numerically based on 0-9, A-Z, plus special characters
 117:Core/Src/seg7.c **** char _7SEG[] =
 118:Core/Src/seg7.c **** 		{(0x3F),(0x06),(0x5B),(0x4F),(0x66),(0x6D),(0x7D),
 119:Core/Src/seg7.c **** 		(0x07),(0x7F),(0x6F),(0x77),(0x7C),(0x39),(0x5E),
 120:Core/Src/seg7.c **** 		(0x79),(0x71),(0x3D),(0x76),(0x06),(0x1E),(0x7A),
 121:Core/Src/seg7.c **** 		(0x38),(0x15),(0x54),(0x3F),(0x73),(0x67),(0x50),
 122:Core/Src/seg7.c **** 		(0x6D),(0x78),(0x3E),(0x62),(0x2A),(0x64),(0x6E),
 123:Core/Src/seg7.c **** 		(0x5B),(0x80),(0x48),(0x01),(0x02),(0x04),(0x08),
 124:Core/Src/seg7.c **** 		(0x10),(0x20),(0x40),(0x00)};
 125:Core/Src/seg7.c **** 		
 126:Core/Src/seg7.c **** // Characters assigned based on ASCII character codes		
 127:Core/Src/seg7.c **** unsigned char _7SEG_ASCII[]=
 128:Core/Src/seg7.c **** {
 129:Core/Src/seg7.c **** 	['0'] = (0x3F),
 130:Core/Src/seg7.c **** 	['1'] = (0x06),
 131:Core/Src/seg7.c **** 	['2'] = (0x5B),
 132:Core/Src/seg7.c **** 	['3'] = (0x4F),
 133:Core/Src/seg7.c **** 	['4'] = (0x66),
 134:Core/Src/seg7.c **** 	['5'] = (0x6D),
 135:Core/Src/seg7.c **** 	['6'] = (0x7D),
 136:Core/Src/seg7.c **** 	['7'] = (0x07),
 137:Core/Src/seg7.c **** 	['8'] = (0x7F),
 138:Core/Src/seg7.c **** 	['9'] = (0x6F),
 139:Core/Src/seg7.c **** 	['A'] = (0x77),
 140:Core/Src/seg7.c **** 	['B'] = (0x7C),
 141:Core/Src/seg7.c **** 	['C'] = (0x39),
 142:Core/Src/seg7.c **** 	['D'] = (0x5E),
 143:Core/Src/seg7.c **** 	['E'] = (0x79),
ARM GAS  /tmp/cceHp6fP.s 			page 4


 144:Core/Src/seg7.c **** 	['F'] = (0x71),
 145:Core/Src/seg7.c **** 	['G'] = (0x3D),
 146:Core/Src/seg7.c **** 	['H'] = (0x76),
 147:Core/Src/seg7.c **** 	['I'] = (0x06),
 148:Core/Src/seg7.c **** 	['J'] = (0x1E),
 149:Core/Src/seg7.c **** 	['K'] = (0x7A),
 150:Core/Src/seg7.c **** 	['L'] = (0x38),
 151:Core/Src/seg7.c **** 	['M'] = (0x15),
 152:Core/Src/seg7.c **** 	['N'] = (0x54),
 153:Core/Src/seg7.c **** 	['O'] = (0x3F),
 154:Core/Src/seg7.c **** 	['P'] = (0x73),
 155:Core/Src/seg7.c **** 	['Q'] = (0x67),
 156:Core/Src/seg7.c **** 	['R'] = (0x50),
 157:Core/Src/seg7.c **** 	['S'] = (0x6D),
 158:Core/Src/seg7.c **** 	['T'] = (0x78),
 159:Core/Src/seg7.c **** 	['U'] = (0x3E),
 160:Core/Src/seg7.c **** 	['V'] = (0x62),
 161:Core/Src/seg7.c **** 	['W'] = (0x2A),
 162:Core/Src/seg7.c **** 	['X'] = (0x64),
 163:Core/Src/seg7.c **** 	['Y'] = (0x6E),
 164:Core/Src/seg7.c **** 	['Z'] = (0x5B),
 165:Core/Src/seg7.c **** 	['a'] = (0x77),
 166:Core/Src/seg7.c **** 	['b'] = (0x7C),
 167:Core/Src/seg7.c **** 	['c'] = (0x39),
 168:Core/Src/seg7.c **** 	['d'] = (0x5E),
 169:Core/Src/seg7.c **** 	['e'] = (0x79),
 170:Core/Src/seg7.c **** 	['f'] = (0x71),
 171:Core/Src/seg7.c **** 	['g'] = (0x3D),
 172:Core/Src/seg7.c **** 	['h'] = (0x76),
 173:Core/Src/seg7.c **** 	['i'] = (0x06),
 174:Core/Src/seg7.c **** 	['j'] = (0x1E),
 175:Core/Src/seg7.c **** 	['k'] = (0x7A),
 176:Core/Src/seg7.c **** 	['l'] = (0x38),
 177:Core/Src/seg7.c **** 	['m'] = (0x15),
 178:Core/Src/seg7.c **** 	['n'] = (0x54),
 179:Core/Src/seg7.c **** 	['o'] = (0x3F),
 180:Core/Src/seg7.c **** 	['p'] = (0x73),
 181:Core/Src/seg7.c **** 	['q'] = (0x67),
 182:Core/Src/seg7.c **** 	['r'] = (0x50),
 183:Core/Src/seg7.c **** 	['s'] = (0x6D),
 184:Core/Src/seg7.c **** 	['t'] = (0x78),
 185:Core/Src/seg7.c **** 	['u'] = (0x3E),
 186:Core/Src/seg7.c **** 	['v'] = (0x62),
 187:Core/Src/seg7.c **** 	['w'] = (0x2A),
 188:Core/Src/seg7.c **** 	['x'] = (0x64),
 189:Core/Src/seg7.c **** 	['y'] = (0x6E),
 190:Core/Src/seg7.c **** 	['z'] = (0x5B),
 191:Core/Src/seg7.c **** 	['.'] = (0x80),
 192:Core/Src/seg7.c **** 	['='] = (0x48),
 193:Core/Src/seg7.c **** 	[' '] = (0x00),
 194:Core/Src/seg7.c **** 	['-'] = (0x20),
 195:Core/Src/seg7.c **** 	['_'] = (0x04),
 196:Core/Src/seg7.c **** 	[127] = 0,
 197:Core/Src/seg7.c **** };
 198:Core/Src/seg7.c **** #endif
 199:Core/Src/seg7.c **** 
 200:Core/Src/seg7.c **** 
ARM GAS  /tmp/cceHp6fP.s 			page 5


 201:Core/Src/seg7.c **** 
 202:Core/Src/seg7.c **** void Seven_Segment_Digit (unsigned char digit, unsigned char hex_char, unsigned char dot)
 203:Core/Src/seg7.c **** {
  30              		.loc 1 203 1 view -0
  31              		.cfi_startproc
  32              		@ args = 0, pretend = 0, frame = 0
  33              		@ frame_needed = 0, uses_anonymous_args = 0
  34              		@ link register save eliminated.
 204:Core/Src/seg7.c **** /*******************************************************************************
 205:Core/Src/seg7.c **** Code to mask and bit shift 0-7 value of digit and 0-15 value of hex_char
 206:Core/Src/seg7.c **** to output correct bit pattern to GPIO_Output
 207:Core/Src/seg7.c **** *******************************************************************************/
 208:Core/Src/seg7.c **** 	// Set selected digit to 0, all others high, and output 7 segment pattern
 209:Core/Src/seg7.c **** 	GPIOE->ODR = (0xFF00 | _7SEG[hex_char]) & ~(1<<(digit+8));
  35              		.loc 1 209 2 view .LVU1
  36              		.loc 1 209 30 is_stmt 0 view .LVU2
  37 0000 0A4B     		ldr	r3, .L3
  38 0002 5B5C     		ldrb	r3, [r3, r1]	@ zero_extendqisi2
  39              		.loc 1 209 23 view .LVU3
  40 0004 43F47F43 		orr	r3, r3, #65280
  41              		.loc 1 209 55 view .LVU4
  42 0008 0830     		adds	r0, r0, #8
  43              	.LVL1:
  44              		.loc 1 209 47 view .LVU5
  45 000a 0121     		movs	r1, #1
  46              	.LVL2:
  47              		.loc 1 209 47 view .LVU6
  48 000c 8140     		lsls	r1, r1, r0
  49              		.loc 1 209 42 view .LVU7
  50 000e 23EA0103 		bic	r3, r3, r1
  51              		.loc 1 209 13 view .LVU8
  52 0012 0749     		ldr	r1, .L3+4
  53 0014 4B61     		str	r3, [r1, #20]
 210:Core/Src/seg7.c **** 	
 211:Core/Src/seg7.c **** 	#if COMMON_ANODE == 1
 212:Core/Src/seg7.c **** 	if (dot > 0) GPIOE->ODR &= ~(1<<7); // Set dot segment to 0 if dot is on
  54              		.loc 1 212 2 is_stmt 1 view .LVU9
  55              		.loc 1 212 5 is_stmt 0 view .LVU10
  56 0016 1AB1     		cbz	r2, .L2
  57              		.loc 1 212 15 is_stmt 1 discriminator 1 view .LVU11
  58              		.loc 1 212 20 is_stmt 0 discriminator 1 view .LVU12
  59 0018 4B69     		ldr	r3, [r1, #20]
  60              		.loc 1 212 26 discriminator 1 view .LVU13
  61 001a 23F08003 		bic	r3, r3, #128
  62 001e 4B61     		str	r3, [r1, #20]
  63              	.L2:
 213:Core/Src/seg7.c **** 	#else
 214:Core/Src/seg7.c **** 	if (dot > 0) GPIOE->ODR |= (1<<7); // Set dot segment to 1 if dot is on
 215:Core/Src/seg7.c **** 	#endif
 216:Core/Src/seg7.c **** 
 217:Core/Src/seg7.c **** 	// Set all selects high to latch-in character
 218:Core/Src/seg7.c **** 	GPIOE->ODR |= 0xFF00;
  64              		.loc 1 218 2 is_stmt 1 view .LVU14
  65              		.loc 1 218 7 is_stmt 0 view .LVU15
  66 0020 034A     		ldr	r2, .L3+4
  67              	.LVL3:
  68              		.loc 1 218 7 view .LVU16
ARM GAS  /tmp/cceHp6fP.s 			page 6


  69 0022 5369     		ldr	r3, [r2, #20]
  70              		.loc 1 218 13 view .LVU17
  71 0024 43F47F43 		orr	r3, r3, #65280
  72 0028 5361     		str	r3, [r2, #20]
 219:Core/Src/seg7.c **** 	return;
  73              		.loc 1 219 2 is_stmt 1 view .LVU18
 220:Core/Src/seg7.c **** }
  74              		.loc 1 220 1 is_stmt 0 view .LVU19
  75 002a 7047     		bx	lr
  76              	.L4:
  77              		.align	2
  78              	.L3:
  79 002c 00000000 		.word	_7SEG
  80 0030 00100240 		.word	1073876992
  81              		.cfi_endproc
  82              	.LFE134:
  84              		.section	.text.Seven_Segment_ASCII,"ax",%progbits
  85              		.align	1
  86              		.global	Seven_Segment_ASCII
  87              		.syntax unified
  88              		.thumb
  89              		.thumb_func
  91              	Seven_Segment_ASCII:
  92              	.LVL4:
  93              	.LFB135:
 221:Core/Src/seg7.c **** 
 222:Core/Src/seg7.c **** void Seven_Segment_ASCII (unsigned char digit, unsigned char ascii_char, unsigned char dot)
 223:Core/Src/seg7.c **** {
  94              		.loc 1 223 1 is_stmt 1 view -0
  95              		.cfi_startproc
  96              		@ args = 0, pretend = 0, frame = 0
  97              		@ frame_needed = 0, uses_anonymous_args = 0
  98              		@ link register save eliminated.
 224:Core/Src/seg7.c **** /*******************************************************************************
 225:Core/Src/seg7.c **** Code to mask and bit shift 0-7 value of digit and 0-15 value of hex_char
 226:Core/Src/seg7.c **** to output correct bit pattern to GPIO_Output
 227:Core/Src/seg7.c **** *******************************************************************************/
 228:Core/Src/seg7.c **** 	// Set selected digit to 0, all others high, and output 7 segment pattern
 229:Core/Src/seg7.c **** 	GPIOE->ODR = (0xFF00 | _7SEG_ASCII[ascii_char]) & ~(1<<(digit+8));
  99              		.loc 1 229 2 view .LVU21
 100              		.loc 1 229 36 is_stmt 0 view .LVU22
 101 0000 0A4B     		ldr	r3, .L7
 102 0002 5B5C     		ldrb	r3, [r3, r1]	@ zero_extendqisi2
 103              		.loc 1 229 23 view .LVU23
 104 0004 43F47F43 		orr	r3, r3, #65280
 105              		.loc 1 229 63 view .LVU24
 106 0008 0830     		adds	r0, r0, #8
 107              	.LVL5:
 108              		.loc 1 229 55 view .LVU25
 109 000a 0121     		movs	r1, #1
 110              	.LVL6:
 111              		.loc 1 229 55 view .LVU26
 112 000c 8140     		lsls	r1, r1, r0
 113              		.loc 1 229 50 view .LVU27
 114 000e 23EA0103 		bic	r3, r3, r1
 115              		.loc 1 229 13 view .LVU28
 116 0012 0749     		ldr	r1, .L7+4
ARM GAS  /tmp/cceHp6fP.s 			page 7


 117 0014 4B61     		str	r3, [r1, #20]
 230:Core/Src/seg7.c **** 	
 231:Core/Src/seg7.c **** 	#if COMMON_ANODE == 1
 232:Core/Src/seg7.c **** 	if (dot > 0) GPIOE->ODR &= ~(1<<7); // Set dot segment to 0 if dot is on
 118              		.loc 1 232 2 is_stmt 1 view .LVU29
 119              		.loc 1 232 5 is_stmt 0 view .LVU30
 120 0016 1AB1     		cbz	r2, .L6
 121              		.loc 1 232 15 is_stmt 1 discriminator 1 view .LVU31
 122              		.loc 1 232 20 is_stmt 0 discriminator 1 view .LVU32
 123 0018 4B69     		ldr	r3, [r1, #20]
 124              		.loc 1 232 26 discriminator 1 view .LVU33
 125 001a 23F08003 		bic	r3, r3, #128
 126 001e 4B61     		str	r3, [r1, #20]
 127              	.L6:
 233:Core/Src/seg7.c **** 	#else
 234:Core/Src/seg7.c **** 	if (dot > 0) GPIOE->ODR |= (1<<7); // Set dot segment to 1 if dot is on
 235:Core/Src/seg7.c **** 	#endif
 236:Core/Src/seg7.c **** 
 237:Core/Src/seg7.c **** 	// Set all selects high to latch-in character
 238:Core/Src/seg7.c **** 	GPIOE->ODR |= 0xFF00;
 128              		.loc 1 238 2 is_stmt 1 view .LVU34
 129              		.loc 1 238 7 is_stmt 0 view .LVU35
 130 0020 034A     		ldr	r2, .L7+4
 131              	.LVL7:
 132              		.loc 1 238 7 view .LVU36
 133 0022 5369     		ldr	r3, [r2, #20]
 134              		.loc 1 238 13 view .LVU37
 135 0024 43F47F43 		orr	r3, r3, #65280
 136 0028 5361     		str	r3, [r2, #20]
 239:Core/Src/seg7.c **** 	return;
 137              		.loc 1 239 2 is_stmt 1 view .LVU38
 240:Core/Src/seg7.c **** }
 138              		.loc 1 240 1 is_stmt 0 view .LVU39
 139 002a 7047     		bx	lr
 140              	.L8:
 141              		.align	2
 142              	.L7:
 143 002c 00000000 		.word	_7SEG_ASCII
 144 0030 00100240 		.word	1073876992
 145              		.cfi_endproc
 146              	.LFE135:
 148              		.section	.text.Seven_Segment,"ax",%progbits
 149              		.align	1
 150              		.global	Seven_Segment
 151              		.syntax unified
 152              		.thumb
 153              		.thumb_func
 155              	Seven_Segment:
 156              	.LVL8:
 157              	.LFB136:
 241:Core/Src/seg7.c **** 
 242:Core/Src/seg7.c **** void Seven_Segment(unsigned int HexValue)
 243:Core/Src/seg7.c **** {
 158              		.loc 1 243 1 is_stmt 1 view -0
 159              		.cfi_startproc
 160              		@ args = 0, pretend = 0, frame = 0
 161              		@ frame_needed = 0, uses_anonymous_args = 0
ARM GAS  /tmp/cceHp6fP.s 			page 8


 162              		.loc 1 243 1 is_stmt 0 view .LVU41
 163 0000 38B5     		push	{r3, r4, r5, lr}
 164              	.LCFI0:
 165              		.cfi_def_cfa_offset 16
 166              		.cfi_offset 3, -16
 167              		.cfi_offset 4, -12
 168              		.cfi_offset 5, -8
 169              		.cfi_offset 14, -4
 170 0002 0546     		mov	r5, r0
 244:Core/Src/seg7.c **** /******************************************************************************
 245:Core/Src/seg7.c **** Use a for loop to output HexValue to 7 segment display digits
 246:Core/Src/seg7.c **** *******************************************************************************/
 247:Core/Src/seg7.c **** 	char digit;
 171              		.loc 1 247 2 is_stmt 1 view .LVU42
 248:Core/Src/seg7.c **** 	// Send hex values to lower 4 digits
 249:Core/Src/seg7.c **** 	for (digit=0 ; digit<8 ; digit++)
 172              		.loc 1 249 2 view .LVU43
 173              	.LVL9:
 174              		.loc 1 249 12 is_stmt 0 view .LVU44
 175 0004 0024     		movs	r4, #0
 176              		.loc 1 249 2 view .LVU45
 177 0006 0AE0     		b	.L10
 178              	.LVL10:
 179              	.L11:
 250:Core/Src/seg7.c **** 	{
 251:Core/Src/seg7.c **** 	   Seven_Segment_Digit(digit,(HexValue >> (digit*4)) & 0xF,0);
 180              		.loc 1 251 5 is_stmt 1 view .LVU46
 181              		.loc 1 251 50 is_stmt 0 view .LVU47
 182 0008 A100     		lsls	r1, r4, #2
 183              		.loc 1 251 41 view .LVU48
 184 000a 25FA01F1 		lsr	r1, r5, r1
 185              		.loc 1 251 5 view .LVU49
 186 000e 0022     		movs	r2, #0
 187 0010 01F00F01 		and	r1, r1, #15
 188 0014 2046     		mov	r0, r4
 189 0016 FFF7FEFF 		bl	Seven_Segment_Digit
 190              	.LVL11:
 249:Core/Src/seg7.c **** 	{
 191              		.loc 1 249 32 is_stmt 1 discriminator 3 view .LVU50
 192 001a 0134     		adds	r4, r4, #1
 193              	.LVL12:
 249:Core/Src/seg7.c **** 	{
 194              		.loc 1 249 32 is_stmt 0 discriminator 3 view .LVU51
 195 001c E4B2     		uxtb	r4, r4
 196              	.LVL13:
 197              	.L10:
 249:Core/Src/seg7.c **** 	{
 198              		.loc 1 249 22 is_stmt 1 discriminator 1 view .LVU52
 199 001e 072C     		cmp	r4, #7
 200 0020 F2D9     		bls	.L11
 252:Core/Src/seg7.c **** 	}
 253:Core/Src/seg7.c **** 
 254:Core/Src/seg7.c **** 	return;
 255:Core/Src/seg7.c **** }
 201              		.loc 1 255 1 is_stmt 0 view .LVU53
 202 0022 38BD     		pop	{r3, r4, r5, pc}
 203              		.loc 1 255 1 view .LVU54
ARM GAS  /tmp/cceHp6fP.s 			page 9


 204              		.cfi_endproc
 205              	.LFE136:
 207              		.global	_7SEG_ASCII
 208              		.section	.data._7SEG_ASCII,"aw"
 209              		.align	2
 212              	_7SEG_ASCII:
 213 0000 00000000 		.ascii	"\000\000\000\000\000\000\000\000\000\000\000\000\000"
 213      00000000 
 213      00000000 
 213      00
 214 000d 00000000 		.ascii	"\000\000\000\000\000\000\000\000\000\000\000\000\000"
 214      00000000 
 214      00000000 
 214      00
 215 001a 00000000 		.ascii	"\000\000\000\000\000\000\377\000\000\000\000\000\000"
 215      0000FF00 
 215      00000000 
 215      00
 216 0027 00000000 		.ascii	"\000\000\000\000\000\000\337\177\000\300\371\244\260"
 216      0000DF7F 
 216      00C0F9A4 
 216      B0
 217 0034 999282F8 		.ascii	"\231\222\202\370\200\220\000\000\000\267\000\000\000"
 217      80900000 
 217      00B70000 
 217      00
 218 0041 8883C6A1 		.ascii	"\210\203\306\241\206\216\302\211\371\341\205\307\352"
 218      868EC289 
 218      F9E185C7 
 218      EA
 219 004e ABC08C98 		.ascii	"\253\300\214\230\257\222\207\301\235\325\233\221\244"
 219      AF9287C1 
 219      9DD59B91 
 219      A4
 220 005b 00000000 		.ascii	"\000\000\000\000\373\000\210\203\306\241\206\216\302"
 220      FB008883 
 220      C6A1868E 
 220      C2
 221 0068 89F9E185 		.ascii	"\211\371\341\205\307\352\253\300\214\230\257\222\207"
 221      C7EAABC0 
 221      8C98AF92 
 221      87
 222 0075 C19DD59B 		.ascii	"\301\235\325\233\221\244\000\000\000\000\000"
 222      91A40000 
 222      000000
 223              		.global	_7SEG
 224              		.section	.data._7SEG,"aw"
 225              		.align	2
 228              	_7SEG:
 229 0000 C0F9C0B0 		.ascii	"\300\371\300\260\231\222\202\370\200\220\210\203\306"
 229      999282F8 
 229      80908883 
 229      C6
 230 000d A1868EC2 		.ascii	"\241\206\216\302\211\371\341\205\307\352\253\300\214"
 230      89F9E185 
 230      C7EAABC0 
 230      8C
ARM GAS  /tmp/cceHp6fP.s 			page 10


 231 001a 98AF9287 		.ascii	"\230\257\222\207\301\235\325\233\221\244\177\267\376"
 231      C19DD59B 
 231      91A47FB7 
 231      FE
 232 0027 FDFBF7EF 		.ascii	"\375\373\367\357\337\277\377"
 232      DFBFFF
 233              		.text
 234              	.Letext0:
 235              		.file 2 "/nix/store/3y7lyg1ykgxhlb9sa5iy0gb8hnshb302-gcc-arm-embedded-15.2.rel1/arm-none-eabi/incl
 236              		.file 3 "/nix/store/3y7lyg1ykgxhlb9sa5iy0gb8hnshb302-gcc-arm-embedded-15.2.rel1/arm-none-eabi/incl
 237              		.file 4 "Drivers/CMSIS/Device/ST/STM32F4xx/Include/stm32f407xx.h"
ARM GAS  /tmp/cceHp6fP.s 			page 11

